; Function Attrs: nounwind uwtable
define internal fastcc range(i32 -400, 1) i32 @cc_char_next(ptr noundef nonnull captures(none) %0, ptr noundef nonnull captures(none) %1, i32 noundef %2, ptr noundef nonnull writeonly captures(none) %3, i32 noundef range(i32 0, 2) %4, i32 noundef %5, ptr noundef nonnull captures(none) %6, ptr noundef nonnull captures(none) %7, ptr noundef readonly captures(none) %8) unnamed_addr #2 {
  %10 = load i32, ptr %7, align 4, !tbaa !8
  switch i32 %10, label %98 [
    i32 0, label %11
    i32 1, label %30
    i32 2, label %97
    i32 3, label %97
  ]

11:                                               ; preds = %9
  %12 = load i32, ptr %6, align 4, !tbaa !8
  switch i32 %12, label %98 [
    i32 1, label %13
    i32 2, label %25
  ]

13:                                               ; preds = %11
  %14 = load i32, ptr %1, align 4, !tbaa !8
  %15 = icmp ugt i32 %14, 255
  br i1 %15, label %add_code_range.exit.thread, label %16

16:                                               ; preds = %13
  %17 = and i32 %14, 31
  %18 = shl nuw i32 1, %17
  %19 = getelementptr inbounds nuw i8, ptr %0, i64 20
  %20 = lshr i32 %14, 5
  %21 = zext nneg i32 %20 to i64
  %22 = getelementptr inbounds nuw [8 x i32], ptr %19, i64 0, i64 %21
  %23 = load i32, ptr %22, align 4, !tbaa !8
  %24 = or i32 %23, %18
  store i32 %24, ptr %22, align 4, !tbaa !8
  br label %98

25:                                               ; preds = %11
  %26 = getelementptr inbounds nuw i8, ptr %0, i64 56
  %27 = load i32, ptr %1, align 4, !tbaa !8
  %28 = tail call fastcc i32 @add_code_range_to_buf(ptr noundef nonnull %26, i32 noundef %27, i32 noundef %27)
  %29 = icmp slt i32 %28, 0
  br i1 %29, label %add_code_range.exit.thread, label %98

30:                                               ; preds = %9
  %31 = load i32, ptr %6, align 4, !tbaa !8
  %32 = icmp eq i32 %5, %31
  br i1 %32, label %33, label %66

33:                                               ; preds = %30
  %34 = icmp eq i32 %5, 1
  %35 = load i32, ptr %1, align 4, !tbaa !8
  br i1 %34, label %36, label %55

36:                                               ; preds = %33
  %37 = or i32 %35, %2
  %or.cond.not = icmp ult i32 %37, 256
  br i1 %or.cond.not, label %38, label %add_code_range.exit.thread

38:                                               ; preds = %36
  %39 = icmp samesign ugt i32 %35, %2
  br i1 %39, label %40, label %.lr.ph.preheader.i

40:                                               ; preds = %38
  %41 = getelementptr inbounds nuw i8, ptr %8, i64 16
  %42 = load ptr, ptr %41, align 8, !tbaa !144
  %43 = getelementptr inbounds nuw i8, ptr %42, i64 8
  %44 = load i32, ptr %43, align 4, !tbaa !58
  %45 = and i32 %44, 4194304
  %.not61 = icmp eq i32 %45, 0
  br i1 %.not61, label %add_code_range.exit.thread, label %bitset_set_range.exit

.lr.ph.preheader.i:                               ; preds = %38
  %46 = getelementptr inbounds nuw i8, ptr %0, i64 20
  br label %.lr.ph.i

.lr.ph.i:                                         ; preds = %.lr.ph.i, %.lr.ph.preheader.i
  %.07.i = phi i32 [ %54, %.lr.ph.i ], [ %35, %.lr.ph.preheader.i ]
  %47 = and i32 %.07.i, 31
  %48 = shl nuw i32 1, %47
  %49 = lshr i32 %.07.i, 5
  %50 = zext nneg i32 %49 to i64
  %51 = getelementptr inbounds nuw i32, ptr %46, i64 %50
  %52 = load i32, ptr %51, align 4, !tbaa !8
  %53 = or i32 %48, %52
  store i32 %53, ptr %51, align 4, !tbaa !8
  %54 = add i32 %.07.i, 1
  %exitcond79.not = icmp eq i32 %.07.i, %2
  br i1 %exitcond79.not, label %bitset_set_range.exit, label %.lr.ph.i, !llvm.loop !207

55:                                               ; preds = %33
  %56 = icmp ugt i32 %35, %2
  br i1 %56, label %57, label %add_code_range.exit

57:                                               ; preds = %55
  %58 = getelementptr inbounds nuw i8, ptr %8, i64 16
  %59 = load ptr, ptr %58, align 8, !tbaa !144
  %60 = getelementptr inbounds nuw i8, ptr %59, i64 8
  %61 = load i32, ptr %60, align 4, !tbaa !58
  %62 = and i32 %61, 4194304
  %.not.i = icmp eq i32 %62, 0
  br i1 %.not.i, label %add_code_range.exit.thread, label %bitset_set_range.exit

add_code_range.exit:                              ; preds = %55
  %63 = getelementptr inbounds nuw i8, ptr %0, i64 56
  %64 = tail call fastcc i32 @add_code_range_to_buf(ptr noundef nonnull %63, i32 noundef %35, i32 noundef %2)
  %65 = icmp slt i32 %64, 0
  br i1 %65, label %add_code_range.exit.thread, label %bitset_set_range.exit

66:                                               ; preds = %30
  %67 = load i32, ptr %1, align 4, !tbaa !8
  %68 = icmp ugt i32 %67, %2
  br i1 %68, label %69, label %75

69:                                               ; preds = %66
  %70 = getelementptr inbounds nuw i8, ptr %8, i64 16
  %71 = load ptr, ptr %70, align 8, !tbaa !144
  %72 = getelementptr inbounds nuw i8, ptr %71, i64 8
  %73 = load i32, ptr %72, align 4, !tbaa !58
  %74 = and i32 %73, 4194304
  %.not = icmp eq i32 %74, 0
  br i1 %.not, label %add_code_range.exit.thread, label %bitset_set_range.exit

75:                                               ; preds = %66
  %76 = getelementptr inbounds nuw i8, ptr %0, i64 20
  %77 = tail call i32 @llvm.umin.i32(i32 %2, i32 255)
  %.not78 = icmp sgt i32 %67, %77
  br i1 %.not78, label %bitset_set_range.exit66, label %.lr.ph.i64

.lr.ph.i64:                                       ; preds = %75, %.lr.ph.i64
  %.07.i65 = phi i32 [ %85, %.lr.ph.i64 ], [ %67, %75 ]
  %78 = and i32 %.07.i65, 31
  %79 = shl nuw i32 1, %78
  %80 = lshr i32 %.07.i65, 5
  %81 = zext nneg i32 %80 to i64
  %82 = getelementptr inbounds nuw i32, ptr %76, i64 %81
  %83 = load i32, ptr %82, align 4, !tbaa !8
  %84 = or i32 %79, %83
  store i32 %84, ptr %82, align 4, !tbaa !8
  %85 = add i32 %.07.i65, 1
  %exitcond.not = icmp eq i32 %.07.i65, %77
  br i1 %exitcond.not, label %bitset_set_range.exit66.loopexit, label %.lr.ph.i64, !llvm.loop !207

bitset_set_range.exit66.loopexit:                 ; preds = %.lr.ph.i64
  %.pre = load i32, ptr %1, align 4, !tbaa !8
  br label %bitset_set_range.exit66

bitset_set_range.exit66:                          ; preds = %bitset_set_range.exit66.loopexit, %75
  %86 = phi i32 [ %.pre, %bitset_set_range.exit66.loopexit ], [ %67, %75 ]
  %87 = icmp ugt i32 %86, %2
  br i1 %87, label %88, label %add_code_range.exit70

88:                                               ; preds = %bitset_set_range.exit66
  %89 = getelementptr inbounds nuw i8, ptr %8, i64 16
  %90 = load ptr, ptr %89, align 8, !tbaa !144
  %91 = getelementptr inbounds nuw i8, ptr %90, i64 8
  %92 = load i32, ptr %91, align 4, !tbaa !58
  %93 = and i32 %92, 4194304
  %.not.i68 = icmp eq i32 %93, 0
  br i1 %.not.i68, label %add_code_range.exit.thread, label %bitset_set_range.exit

add_code_range.exit70:                            ; preds = %bitset_set_range.exit66
  %94 = getelementptr inbounds nuw i8, ptr %0, i64 56
  %95 = tail call fastcc i32 @add_code_range_to_buf(ptr noundef nonnull %94, i32 noundef %86, i32 noundef %2)
  %96 = icmp slt i32 %95, 0
  br i1 %96, label %add_code_range.exit.thread, label %bitset_set_range.exit

bitset_set_range.exit:                            ; preds = %.lr.ph.i, %88, %57, %add_code_range.exit, %add_code_range.exit70, %69, %40
  store i32 2, ptr %7, align 4, !tbaa !8
  br label %98

97:                                               ; preds = %9, %9
  store i32 0, ptr %7, align 4, !tbaa !8
  br label %98

98:                                               ; preds = %11, %9, %16, %25, %97, %bitset_set_range.exit
  store i32 %4, ptr %3, align 4, !tbaa !8
  store i32 %2, ptr %1, align 4, !tbaa !8
  store i32 %5, ptr %6, align 4, !tbaa !8
  br label %add_code_range.exit.thread

add_code_range.exit.thread:                       ; preds = %88, %57, %add_code_range.exit70, %69, %add_code_range.exit, %40, %36, %25, %13, %98
  %.0 = phi i32 [ 0, %98 ], [ -400, %13 ], [ %28, %25 ], [ -400, %36 ], [ -203, %40 ], [ %64, %add_code_range.exit ], [ -203, %69 ], [ %95, %add_code_range.exit70 ], [ -203, %57 ], [ -203, %88 ]
  ret i32 %.0
}